; Function Attrs: mustprogress nounwind uwtable
define hidden void @_ZN2cv5gimpl17GThreadedExecutor6Output4postEONS0_9ExceptionE(ptr noundef nonnull align 8 captures(none) dereferenceable(104) %0, ptr noundef nonnull align 8 captures(none) dereferenceable(8) %1) unnamed_addr #6 align 2 {
  %3 = alloca %"class.std::__exception_ptr::exception_ptr", align 8
  %4 = getelementptr inbounds nuw i8, ptr %0, i64 96
  call void @llvm.lifetime.start.p0(i64 8, ptr nonnull %3) #26
  %5 = load ptr, ptr %1, align 8, !tbaa !95
  store ptr null, ptr %1, align 8, !tbaa !95
  %6 = load ptr, ptr %4, align 8, !tbaa !95
  store ptr %6, ptr %3, align 8, !tbaa !95
  store ptr %5, ptr %4, align 8, !tbaa !95
  %.not.i.i = icmp eq ptr %6, null
  br i1 %.not.i.i, label %_ZNSt15__exception_ptr13exception_ptraSEOS0_.exit, label %7

7:                                                ; preds = %2
  call void @_ZNSt15__exception_ptr13exception_ptr10_M_releaseEv(ptr noundef nonnull align 8 dereferenceable(8) %3) #26
  br label %_ZNSt15__exception_ptr13exception_ptraSEOS0_.exit

_ZNSt15__exception_ptr13exception_ptraSEOS0_.exit: ; preds = %2, %7
  call void @llvm.lifetime.end.p0(i64 8, ptr nonnull %3) #26
  ret void
}